target datalayout = "e-m:e-p270:32:32-p271:32:32-p272:64:64-i64:64-i128:128-f80:128-n8:16:32:64-S128"
target triple = "x86_64-pc-linux-gnu"

%struct.mi_page_queue_s = type { ptr, ptr, i64 }
%struct.mi_page_s = type { i8, i8, i16, i16, %union.mi_page_flags_s, i8, ptr, ptr, i16, i8, i8, i64, ptr, i64, i64, ptr, ptr }
%union.mi_page_flags_s = type { i8 }
%struct.mi_segment_s = type { %struct.mi_memid_s, i8, i8, i64, ptr, ptr, ptr, i8, i8, i64, i64, i64, i64, i64, i64, ptr, ptr, i64, i64, i32, [1 x %struct.mi_page_s] }
%struct.mi_memid_s = type { %union.anon, i8, i8, i8, i32 }
%union.anon = type { %struct.mi_memid_os_info }
%struct.mi_memid_os_info = type { ptr, i64 }
%struct.mi_segments_tld_s = type { %struct.mi_segment_queue_s, %struct.mi_segment_queue_s, %struct.mi_page_queue_s, i64, i64, i64, i64, i64, ptr, ptr }
%struct.mi_segment_queue_s = type { ptr, ptr }

; Function Attrs: nounwind uwtable
define internal ptr @mi_segment_free_queue_of_kind(i32 noundef %0, ptr noundef %1) #0 {
  %3 = alloca ptr, align 8
  %4 = alloca i32, align 4
  %5 = alloca ptr, align 8
  store i32 %0, ptr %4, align 4, !tbaa !83
  store ptr %1, ptr %5, align 8, !tbaa !28
  %6 = load i32, ptr %4, align 4, !tbaa !83
  %7 = icmp eq i32 %6, 0
  br i1 %7, label %8, label %11

8:                                                ; preds = %2
  %9 = load ptr, ptr %5, align 8, !tbaa !28
  %10 = getelementptr inbounds nuw %struct.mi_segments_tld_s, ptr %9, i32 0, i32 0
  store ptr %10, ptr %3, align 8
  br label %18

11:                                               ; preds = %2
  %12 = load i32, ptr %4, align 4, !tbaa !83
  %13 = icmp eq i32 %12, 1
  br i1 %13, label %14, label %17

14:                                               ; preds = %11
  %15 = load ptr, ptr %5, align 8, !tbaa !28
  %16 = getelementptr inbounds nuw %struct.mi_segments_tld_s, ptr %15, i32 0, i32 1
  store ptr %16, ptr %3, align 8
  br label %18

17:                                               ; preds = %11
  store ptr null, ptr %3, align 8
  br label %18

18:                                               ; preds = %17, %14, %8
  %19 = load ptr, ptr %3, align 8
  ret ptr %19
}

; Function Attrs: nounwind uwtable
define internal void @mi_segment_enqueue(ptr noundef %0, ptr noundef %1) #0 {
  %3 = alloca ptr, align 8
  %4 = alloca ptr, align 8
  store ptr %0, ptr %3, align 8, !tbaa !101
  store ptr %1, ptr %4, align 8, !tbaa !3
  %5 = load ptr, ptr %4, align 8, !tbaa !3
  %6 = getelementptr inbounds nuw %struct.mi_segment_s, ptr %5, i32 0, i32 5
  store ptr null, ptr %6, align 8, !tbaa !103
  %7 = load ptr, ptr %3, align 8, !tbaa !101
  %8 = getelementptr inbounds nuw %struct.mi_segment_queue_s, ptr %7, i32 0, i32 1
  %9 = load ptr, ptr %8, align 8, !tbaa !108
  %10 = load ptr, ptr %4, align 8, !tbaa !3
  %11 = getelementptr inbounds nuw %struct.mi_segment_s, ptr %10, i32 0, i32 6
  store ptr %9, ptr %11, align 8, !tbaa !104
  %12 = load ptr, ptr %3, align 8, !tbaa !101
  %13 = getelementptr inbounds nuw %struct.mi_segment_queue_s, ptr %12, i32 0, i32 1
  %14 = load ptr, ptr %13, align 8, !tbaa !108
  %15 = icmp ne ptr %14, null
  br i1 %15, label %16, label %25

16:                                               ; preds = %2
  %17 = load ptr, ptr %4, align 8, !tbaa !3
  %18 = load ptr, ptr %3, align 8, !tbaa !101
  %19 = getelementptr inbounds nuw %struct.mi_segment_queue_s, ptr %18, i32 0, i32 1
  %20 = load ptr, ptr %19, align 8, !tbaa !108
  %21 = getelementptr inbounds nuw %struct.mi_segment_s, ptr %20, i32 0, i32 5
  store ptr %17, ptr %21, align 8, !tbaa !103
  %22 = load ptr, ptr %4, align 8, !tbaa !3
  %23 = load ptr, ptr %3, align 8, !tbaa !101
  %24 = getelementptr inbounds nuw %struct.mi_segment_queue_s, ptr %23, i32 0, i32 1
  store ptr %22, ptr %24, align 8, !tbaa !108
  br label %31

25:                                               ; preds = %2
  %26 = load ptr, ptr %4, align 8, !tbaa !3
  %27 = load ptr, ptr %3, align 8, !tbaa !101
  %28 = getelementptr inbounds nuw %struct.mi_segment_queue_s, ptr %27, i32 0, i32 0
  store ptr %26, ptr %28, align 8, !tbaa !105
  %29 = load ptr, ptr %3, align 8, !tbaa !101
  %30 = getelementptr inbounds nuw %struct.mi_segment_queue_s, ptr %29, i32 0, i32 1
  store ptr %26, ptr %30, align 8, !tbaa !108
  br label %31

31:                                               ; preds = %25, %16
  ret void
}

; Function Attrs: nounwind uwtable
define internal ptr @mi_segment_free_queue(ptr noundef %0, ptr noundef %1) #0 {
  %3 = alloca ptr, align 8
  %4 = alloca ptr, align 8
  store ptr %0, ptr %3, align 8, !tbaa !3
  store ptr %1, ptr %4, align 8, !tbaa !28
  %5 = load ptr, ptr %3, align 8, !tbaa !3
  %6 = getelementptr inbounds nuw %struct.mi_segment_s, ptr %5, i32 0, i32 19
  %7 = load i32, ptr %6, align 8, !tbaa !44
  %8 = load ptr, ptr %4, align 8, !tbaa !28
  %9 = call ptr @mi_segment_free_queue_of_kind(i32 noundef %7, ptr noundef %8) #8
  ret ptr %9
}

; Function Attrs: inlinehint nounwind uwtable
define internal ptr @_mi_ptr_segment(ptr noundef %0) #2 {
  %2 = alloca ptr, align 8
  %3 = alloca ptr, align 8
  store ptr %0, ptr %2, align 8, !tbaa !90
  call void @llvm.lifetime.start.p0(i64 8, ptr %3) #7
  %4 = load ptr, ptr %2, align 8, !tbaa !90
  %5 = ptrtoint ptr %4 to i64
  %6 = sub i64 %5, 1
  %7 = and i64 %6, -4194304
  %8 = inttoptr i64 %7 to ptr
  store ptr %8, ptr %3, align 8, !tbaa !3
  %9 = load ptr, ptr %3, align 8, !tbaa !3
  %10 = ptrtoint ptr %9 to i64
  %11 = icmp sle i64 %10, 0
  br i1 %11, label %12, label %13

12:                                               ; preds = %1
  br label %15

13:                                               ; preds = %1
  %14 = load ptr, ptr %3, align 8, !tbaa !3
  br label %15

15:                                               ; preds = %13, %12
  %16 = phi ptr [ null, %12 ], [ %14, %13 ]
  call void @llvm.lifetime.end.p0(i64 8, ptr %3) #7
  ret ptr %16
}

; Function Attrs: nounwind uwtable
define internal void @mi_segment_insert_in_free_queue(ptr noundef %0, ptr noundef %1) #0 {
  %3 = alloca ptr, align 8
  %4 = alloca ptr, align 8
  store ptr %0, ptr %3, align 8, !tbaa !3
  store ptr %1, ptr %4, align 8, !tbaa !28
  %5 = load ptr, ptr %3, align 8, !tbaa !3
  %6 = load ptr, ptr %4, align 8, !tbaa !28
  %7 = call ptr @mi_segment_free_queue(ptr noundef %5, ptr noundef %6) #8
  %8 = load ptr, ptr %3, align 8, !tbaa !3
  call void @mi_segment_enqueue(ptr noundef %7, ptr noundef %8) #8
  ret void
}

; Function Attrs: inlinehint nounwind uwtable
define internal ptr @_mi_page_segment(ptr noundef %0) #2 {
  %2 = alloca ptr, align 8
  %3 = alloca ptr, align 8
  store ptr %0, ptr %2, align 8, !tbaa !8
  call void @llvm.lifetime.start.p0(i64 8, ptr %3) #7
  %4 = load ptr, ptr %2, align 8, !tbaa !8
  %5 = call ptr @_mi_ptr_segment(ptr noundef %4) #8
  store ptr %5, ptr %3, align 8, !tbaa !3
  %6 = load ptr, ptr %3, align 8, !tbaa !3
  call void @llvm.lifetime.end.p0(i64 8, ptr %3) #7
  ret ptr %6
}

; Function Attrs: nounwind uwtable
define hidden void @_mi_segment_page_free(ptr noundef %0, i1 noundef zeroext %1, ptr noundef %2) #0 {
  %4 = alloca ptr, align 8
  %5 = alloca i8, align 1
  %6 = alloca ptr, align 8
  %7 = alloca ptr, align 8
  store ptr %0, ptr %4, align 8, !tbaa !8
  %8 = zext i1 %1 to i8
  store i8 %8, ptr %5, align 1, !tbaa !27
  store ptr %2, ptr %6, align 8, !tbaa !28
  call void @llvm.lifetime.start.p0(i64 8, ptr %7) #7
  %9 = load ptr, ptr %4, align 8, !tbaa !8
  %10 = call ptr @_mi_page_segment(ptr noundef %9) #8
  store ptr %10, ptr %7, align 8, !tbaa !3
  %11 = load ptr, ptr %6, align 8, !tbaa !28
  call void @mi_pages_try_purge(i1 noundef zeroext false, ptr noundef %11) #8
  %12 = load ptr, ptr %7, align 8, !tbaa !3
  %13 = load ptr, ptr %4, align 8, !tbaa !8
  %14 = load ptr, ptr %6, align 8, !tbaa !28
  call void @mi_segment_page_clear(ptr noundef %12, ptr noundef %13, ptr noundef %14) #8
  %15 = load ptr, ptr %7, align 8, !tbaa !3
  %16 = getelementptr inbounds nuw %struct.mi_segment_s, ptr %15, i32 0, i32 11
  %17 = load i64, ptr %16, align 8, !tbaa !41
  %18 = icmp eq i64 %17, 0
  br i1 %18, label %19, label %24

19:                                               ; preds = %3
  %20 = load ptr, ptr %7, align 8, !tbaa !3
  %21 = load i8, ptr %5, align 1, !tbaa !27, !range !30, !noundef !31
  %22 = trunc i8 %21 to i1
  %23 = load ptr, ptr %6, align 8, !tbaa !28
  call void @mi_segment_free(ptr noundef %20, i1 noundef zeroext %22, ptr noundef %23) #8
  br label %55

24:                                               ; preds = %3
  %25 = load ptr, ptr %7, align 8, !tbaa !3
  %26 = getelementptr inbounds nuw %struct.mi_segment_s, ptr %25, i32 0, i32 11
  %27 = load i64, ptr %26, align 8, !tbaa !41
  %28 = load ptr, ptr %7, align 8, !tbaa !3
  %29 = getelementptr inbounds nuw %struct.mi_segment_s, ptr %28, i32 0, i32 9
  %30 = load i64, ptr %29, align 8, !tbaa !42
  %31 = icmp eq i64 %27, %30
  br i1 %31, label %32, label %35

32:                                               ; preds = %24
  %33 = load ptr, ptr %7, align 8, !tbaa !3
  %34 = load ptr, ptr %6, align 8, !tbaa !28
  call void @mi_segment_abandon(ptr noundef %33, ptr noundef %34) #8
  br label %54

35:                                               ; preds = %24
  %36 = load ptr, ptr %7, align 8, !tbaa !3
  %37 = getelementptr inbounds nuw %struct.mi_segment_s, ptr %36, i32 0, i32 11
  %38 = load i64, ptr %37, align 8, !tbaa !41
  %39 = add i64 %38, 1
  %40 = load ptr, ptr %7, align 8, !tbaa !3
  %41 = getelementptr inbounds nuw %struct.mi_segment_s, ptr %40, i32 0, i32 12
  %42 = load i64, ptr %41, align 8, !tbaa !43
  %43 = icmp eq i64 %39, %42
  br i1 %43, label %44, label %53

44:                                               ; preds = %35
  %45 = load ptr, ptr %7, align 8, !tbaa !3
  %46 = getelementptr inbounds nuw %struct.mi_segment_s, ptr %45, i32 0, i32 19
  %47 = load i32, ptr %46, align 8, !tbaa !44
  %48 = icmp ule i32 %47, 1
  br i1 %48, label %49, label %52

49:                                               ; preds = %44
  %50 = load ptr, ptr %7, align 8, !tbaa !3
  %51 = load ptr, ptr %6, align 8, !tbaa !28
  call void @mi_segment_insert_in_free_queue(ptr noundef %50, ptr noundef %51) #8
  br label %52

52:                                               ; preds = %49, %44
  br label %53

53:                                               ; preds = %52, %35
  br label %54

54:                                               ; preds = %53, %32
  br label %55

55:                                               ; preds = %54, %19
  call void @llvm.lifetime.end.p0(i64 8, ptr %7) #7
  ret void
}