; Function Attrs: nounwind uwtable
define hidden void @_mi_segment_page_free(ptr noundef %0, i1 noundef zeroext %1, ptr noundef captures(address_is_null) %2) local_unnamed_addr #2 {
  %4 = ptrtoint ptr %0 to i64
  %5 = add i64 %4, -1
  %6 = and i64 %5, -4194304
  %7 = inttoptr i64 %6 to ptr
  %8 = icmp slt i64 %5, 4194304
  %9 = select i1 %8, ptr null, ptr %7
  tail call fastcc void @mi_pages_try_purge(i1 noundef zeroext false, ptr noundef %2) #7
  tail call fastcc void @mi_segment_page_clear(ptr noundef %9, ptr noundef %0, ptr noundef %2) #7
  %10 = getelementptr inbounds nuw i8, ptr %9, i64 88
  %11 = load i64, ptr %10, align 8, !tbaa !41
  %12 = icmp eq i64 %11, 0
  br i1 %12, label %13, label %14

13:                                               ; preds = %3
  tail call fastcc void @mi_segment_free(ptr noundef nonnull %9, ptr noundef %2) #7
  br label %35

14:                                               ; preds = %3
  %15 = getelementptr inbounds nuw i8, ptr %9, i64 72
  %16 = load i64, ptr %15, align 8, !tbaa !42
  %17 = icmp eq i64 %11, %16
  br i1 %17, label %18, label %19

18:                                               ; preds = %14
  tail call fastcc void @mi_segment_abandon(ptr noundef nonnull %9, ptr noundef %2) #7
  br label %35

19:                                               ; preds = %14
  %20 = add i64 %11, 1
  %21 = getelementptr inbounds nuw i8, ptr %9, i64 96
  %22 = load i64, ptr %21, align 32, !tbaa !43
  %23 = icmp eq i64 %20, %22
  br i1 %23, label %24, label %35

24:                                               ; preds = %19
  %25 = getelementptr inbounds nuw i8, ptr %9, i64 152
  %26 = load i32, ptr %25, align 8, !tbaa !3
  %27 = icmp ult i32 %26, 2
  br i1 %27, label %mi_segment_free_queue.exit.i, label %35

mi_segment_free_queue.exit.i:                     ; preds = %24
  %switch = icmp eq i32 %26, 0
  %spec.select.idx = select i1 %switch, i64 0, i64 16
  %spec.select = getelementptr inbounds nuw i8, ptr %2, i64 %spec.select.idx
  %28 = getelementptr inbounds nuw i8, ptr %9, i64 48
  store ptr null, ptr %28, align 16, !tbaa !44
  %29 = getelementptr inbounds nuw i8, ptr %spec.select, i64 8
  %30 = load ptr, ptr %29, align 8, !tbaa !45
  %31 = getelementptr inbounds nuw i8, ptr %9, i64 56
  store ptr %30, ptr %31, align 8, !tbaa !46
  %.not.i.i = icmp eq ptr %30, null
  br i1 %.not.i.i, label %34, label %32

32:                                               ; preds = %mi_segment_free_queue.exit.i
  %33 = getelementptr inbounds nuw i8, ptr %30, i64 48
  store ptr %9, ptr %33, align 8, !tbaa !44
  br label %mi_segment_insert_in_free_queue.exit

34:                                               ; preds = %mi_segment_free_queue.exit.i
  store ptr %9, ptr %spec.select, align 8, !tbaa !47
  br label %mi_segment_insert_in_free_queue.exit

mi_segment_insert_in_free_queue.exit:             ; preds = %32, %34
  store ptr %9, ptr %29, align 8, !tbaa !45
  br label %35

35:                                               ; preds = %18, %24, %mi_segment_insert_in_free_queue.exit, %19, %13
  ret void
}